target datalayout = "e-m:e-p270:32:32-p271:32:32-p272:64:64-i64:64-i128:128-f80:128-n8:16:32:64-S128"
target triple = "x86_64-pc-linux-gnu"

%struct.JSValue = type { %union.JSValueUnion, i64 }
%union.JSValueUnion = type { double }

; Function Attrs: nounwind uwtable
define internal { i64, i64 } @js_os_isatty(ptr noundef %0, i64 %1, i64 %2, i32 noundef %3, ptr noundef %4) #0 {
  %6 = alloca %struct.JSValue, align 8
  %7 = alloca ptr, align 8
  %8 = alloca i32, align 4
  %9 = alloca %struct.JSValue, align 8
  %10 = alloca %struct.JSValue, align 8
  %11 = alloca ptr, align 8
  %12 = alloca i32, align 4
  %13 = alloca ptr, align 8
  %14 = alloca i32, align 4
  %15 = getelementptr inbounds { i64, i64 }, ptr %10, i32 0, i32 0
  store i64 %1, ptr %15, align 8
  %16 = getelementptr inbounds { i64, i64 }, ptr %10, i32 0, i32 1
  store i64 %2, ptr %16, align 8
  store ptr %0, ptr %11, align 8
  store i32 %3, ptr %12, align 4
  store ptr %4, ptr %13, align 8
  %17 = load ptr, ptr %11, align 8
  %18 = load ptr, ptr %13, align 8
  %19 = getelementptr %struct.JSValue, ptr %18, i64 0
  %20 = getelementptr inbounds { i64, i64 }, ptr %19, i32 0, i32 0
  %21 = load i64, ptr %20, align 8
  %22 = getelementptr inbounds { i64, i64 }, ptr %19, i32 0, i32 1
  %23 = load i64, ptr %22, align 8
  %24 = call i32 @JS_ToInt32(ptr noundef %17, ptr noundef %14, i64 %21, i64 %23)
  %25 = icmp ne i32 %24, 0
  br i1 %25, label %26, label %29

26:                                               ; preds = %5
  %27 = getelementptr inbounds %struct.JSValue, ptr %9, i32 0, i32 0
  store i32 0, ptr %27, align 8
  %28 = getelementptr inbounds %struct.JSValue, ptr %9, i32 0, i32 1
  store i64 6, ptr %28, align 8
  br label %44

29:                                               ; preds = %5
  %30 = load ptr, ptr %11, align 8
  %31 = load i32, ptr %14, align 4
  %32 = call i32 @isatty(i32 noundef %31) #12
  %33 = icmp ne i32 %32, 0
  %34 = zext i1 %33 to i32
  store ptr %30, ptr %7, align 8
  store i32 %34, ptr %8, align 4
  %35 = load i32, ptr %8, align 4
  %36 = icmp ne i32 %35, 0
  %37 = zext i1 %36 to i32
  store i32 %37, ptr %6, align 8
  %38 = getelementptr inbounds %struct.JSValue, ptr %6, i32 0, i32 1
  store i64 1, ptr %38, align 8
  %39 = load { i64, i64 }, ptr %6, align 8
  %40 = getelementptr inbounds { i64, i64 }, ptr %9, i32 0, i32 0
  %41 = extractvalue { i64, i64 } %39, 0
  store i64 %41, ptr %40, align 8
  %42 = getelementptr inbounds { i64, i64 }, ptr %9, i32 0, i32 1
  %43 = extractvalue { i64, i64 } %39, 1
  store i64 %43, ptr %42, align 8
  br label %44

44:                                               ; preds = %29, %26
  %45 = load { i64, i64 }, ptr %9, align 8
  ret { i64, i64 } %45
}