; Function Attrs: nounwind uwtable
define internal { i64, i64 } @js_os_isatty(ptr noundef %0, i64 %1, i64 %2, i32 %3, ptr nocapture noundef readonly %4) #0 {
  %6 = alloca i32, align 4
  %7 = load i64, ptr %4, align 8
  %8 = getelementptr inbounds i8, ptr %4, i64 8
  %9 = load i64, ptr %8, align 8
  %10 = call i32 @JS_ToInt32(ptr noundef %0, ptr noundef nonnull %6, i64 %7, i64 %9) #29
  %.not = icmp eq i32 %10, 0
  br i1 %.not, label %11, label %16

11:                                               ; preds = %5
  %12 = load i32, ptr %6, align 4
  %13 = call i32 @isatty(i32 noundef %12) #29
  %14 = icmp ne i32 %13, 0
  %15 = zext i1 %14 to i64
  br label %16

16:                                               ; preds = %5, %11
  %.sroa.03.0 = phi i64 [ %15, %11 ], [ 0, %5 ]
  %.sroa.3.sroa.2.0 = phi i64 [ 1, %11 ], [ 6, %5 ]
  %.fca.0.insert = insertvalue { i64, i64 } poison, i64 %.sroa.03.0, 0
  %.fca.1.insert = insertvalue { i64, i64 } %.fca.0.insert, i64 %.sroa.3.sroa.2.0, 1
  ret { i64, i64 } %.fca.1.insert
}